target datalayout = "e-m:e-p270:32:32-p271:32:32-p272:64:64-i64:64-i128:128-f80:128-n8:16:32:64-S128"
target triple = "x86_64-pc-linux-gnu"

%struct.Cnf_Man_t_ = type { ptr, ptr, ptr, i32, ptr, i32, [4 x ptr], ptr, i64, i64, i64 }
%struct.Vec_Int_t_ = type { i32, i32, ptr }

; Function Attrs: inlinehint nounwind uwtable
define internal ptr @Vec_IntAlloc(i32 noundef %0) #5 {
  %2 = alloca i32, align 4
  %3 = alloca ptr, align 8
  store i32 %0, ptr %2, align 4, !tbaa !20
  call void @llvm.lifetime.start.p0(i64 8, ptr %3) #11
  %4 = call noalias ptr @malloc(i64 noundef 16) #12
  store ptr %4, ptr %3, align 8, !tbaa !24
  %5 = load i32, ptr %2, align 4, !tbaa !20
  %6 = icmp sgt i32 %5, 0
  br i1 %6, label %7, label %11

7:                                                ; preds = %1
  %8 = load i32, ptr %2, align 4, !tbaa !20
  %9 = icmp slt i32 %8, 16
  br i1 %9, label %10, label %11

10:                                               ; preds = %7
  store i32 16, ptr %2, align 4, !tbaa !20
  br label %11

11:                                               ; preds = %10, %7, %1
  %12 = load ptr, ptr %3, align 8, !tbaa !24
  %13 = getelementptr inbounds nuw %struct.Vec_Int_t_, ptr %12, i32 0, i32 1
  store i32 0, ptr %13, align 4, !tbaa !25
  %14 = load i32, ptr %2, align 4, !tbaa !20
  %15 = load ptr, ptr %3, align 8, !tbaa !24
  %16 = getelementptr inbounds nuw %struct.Vec_Int_t_, ptr %15, i32 0, i32 0
  store i32 %14, ptr %16, align 8, !tbaa !27
  %17 = load ptr, ptr %3, align 8, !tbaa !24
  %18 = getelementptr inbounds nuw %struct.Vec_Int_t_, ptr %17, i32 0, i32 0
  %19 = load i32, ptr %18, align 8, !tbaa !27
  %20 = icmp ne i32 %19, 0
  br i1 %20, label %21, label %28

21:                                               ; preds = %11
  %22 = load ptr, ptr %3, align 8, !tbaa !24
  %23 = getelementptr inbounds nuw %struct.Vec_Int_t_, ptr %22, i32 0, i32 0
  %24 = load i32, ptr %23, align 8, !tbaa !27
  %25 = sext i32 %24 to i64
  %26 = mul i64 4, %25
  %27 = call noalias ptr @malloc(i64 noundef %26) #12
  br label %29

28:                                               ; preds = %11
  br label %29

29:                                               ; preds = %28, %21
  %30 = phi ptr [ %27, %21 ], [ null, %28 ]
  %31 = load ptr, ptr %3, align 8, !tbaa !24
  %32 = getelementptr inbounds nuw %struct.Vec_Int_t_, ptr %31, i32 0, i32 2
  store ptr %30, ptr %32, align 8, !tbaa !28
  %33 = load ptr, ptr %3, align 8, !tbaa !24
  call void @llvm.lifetime.end.p0(i64 8, ptr %3) #11
  ret ptr %33
}

; Function Attrs: inlinehint nounwind uwtable
define internal i32 @Abc_TruthWordNum(i32 noundef %0) #5 {
  %2 = alloca i32, align 4
  store i32 %0, ptr %2, align 4, !tbaa !20
  %3 = load i32, ptr %2, align 4, !tbaa !20
  %4 = icmp sle i32 %3, 5
  br i1 %4, label %5, label %6

5:                                                ; preds = %1
  br label %10

6:                                                ; preds = %1
  %7 = load i32, ptr %2, align 4, !tbaa !20
  %8 = sub nsw i32 %7, 5
  %9 = shl i32 1, %8
  br label %10

10:                                               ; preds = %6, %5
  %11 = phi i32 [ 1, %5 ], [ %9, %6 ]
  ret i32 %11
}

; Function Attrs: nounwind uwtable
define ptr @Cnf_ManStart() #0 {
  %1 = alloca ptr, align 8
  %2 = alloca i32, align 4
  call void @llvm.lifetime.start.p0(i64 8, ptr %1) #11
  call void @llvm.lifetime.start.p0(i64 4, ptr %2) #11
  %3 = call noalias ptr @malloc(i64 noundef 112) #12
  store ptr %3, ptr %1, align 8, !tbaa !3
  %4 = load ptr, ptr %1, align 8, !tbaa !3
  call void @llvm.memset.p0.i64(ptr align 8 %4, i8 0, i64 112, i1 false)
  %5 = load ptr, ptr %1, align 8, !tbaa !3
  %6 = getelementptr inbounds nuw %struct.Cnf_Man_t_, ptr %5, i32 0, i32 1
  %7 = load ptr, ptr %1, align 8, !tbaa !3
  %8 = getelementptr inbounds nuw %struct.Cnf_Man_t_, ptr %7, i32 0, i32 2
  call void @Cnf_ReadMsops(ptr noundef %6, ptr noundef %8)
  %9 = call ptr (...) @Aig_MmFlexStart()
  %10 = load ptr, ptr %1, align 8, !tbaa !3
  %11 = getelementptr inbounds nuw %struct.Cnf_Man_t_, ptr %10, i32 0, i32 4
  store ptr %9, ptr %11, align 8, !tbaa !8
  %12 = load ptr, ptr %1, align 8, !tbaa !3
  %13 = getelementptr inbounds nuw %struct.Cnf_Man_t_, ptr %12, i32 0, i32 5
  store i32 10, ptr %13, align 8, !tbaa !17
  %14 = load ptr, ptr %1, align 8, !tbaa !3
  %15 = getelementptr inbounds nuw %struct.Cnf_Man_t_, ptr %14, i32 0, i32 5
  %16 = load i32, ptr %15, align 8, !tbaa !17
  %17 = call i32 @Abc_TruthWordNum(i32 noundef %16)
  %18 = mul nsw i32 4, %17
  %19 = sext i32 %18 to i64
  %20 = mul i64 4, %19
  %21 = call noalias ptr @malloc(i64 noundef %20) #12
  %22 = load ptr, ptr %1, align 8, !tbaa !3
  %23 = getelementptr inbounds nuw %struct.Cnf_Man_t_, ptr %22, i32 0, i32 6
  %24 = getelementptr inbounds [4 x ptr], ptr %23, i64 0, i64 0
  store ptr %21, ptr %24, align 8, !tbaa !18
  store i32 1, ptr %2, align 4, !tbaa !20
  br label %25

25:                                               ; preds = %47, %0
  %26 = load i32, ptr %2, align 4, !tbaa !20
  %27 = icmp slt i32 %26, 4
  br i1 %27, label %28, label %50

28:                                               ; preds = %25
  %29 = load ptr, ptr %1, align 8, !tbaa !3
  %30 = getelementptr inbounds nuw %struct.Cnf_Man_t_, ptr %29, i32 0, i32 6
  %31 = load i32, ptr %2, align 4, !tbaa !20
  %32 = sub nsw i32 %31, 1
  %33 = sext i32 %32 to i64
  %34 = getelementptr inbounds [4 x ptr], ptr %30, i64 0, i64 %33
  %35 = load ptr, ptr %34, align 8, !tbaa !18
  %36 = load ptr, ptr %1, align 8, !tbaa !3
  %37 = getelementptr inbounds nuw %struct.Cnf_Man_t_, ptr %36, i32 0, i32 5
  %38 = load i32, ptr %37, align 8, !tbaa !17
  %39 = call i32 @Abc_TruthWordNum(i32 noundef %38)
  %40 = sext i32 %39 to i64
  %41 = getelementptr inbounds i32, ptr %35, i64 %40
  %42 = load ptr, ptr %1, align 8, !tbaa !3
  %43 = getelementptr inbounds nuw %struct.Cnf_Man_t_, ptr %42, i32 0, i32 6
  %44 = load i32, ptr %2, align 4, !tbaa !20
  %45 = sext i32 %44 to i64
  %46 = getelementptr inbounds [4 x ptr], ptr %43, i64 0, i64 %45
  store ptr %41, ptr %46, align 8, !tbaa !18
  br label %47

47:                                               ; preds = %28
  %48 = load i32, ptr %2, align 4, !tbaa !20
  %49 = add nsw i32 %48, 1
  store i32 %49, ptr %2, align 4, !tbaa !20
  br label %25, !llvm.loop !21

50:                                               ; preds = %25
  %51 = call ptr @Vec_IntAlloc(i32 noundef 262144)
  %52 = load ptr, ptr %1, align 8, !tbaa !3
  %53 = getelementptr inbounds nuw %struct.Cnf_Man_t_, ptr %52, i32 0, i32 7
  store ptr %51, ptr %53, align 8, !tbaa !23
  %54 = load ptr, ptr %1, align 8, !tbaa !3
  call void @llvm.lifetime.end.p0(i64 4, ptr %2) #11
  call void @llvm.lifetime.end.p0(i64 8, ptr %1) #11
  ret ptr %54
}