; Function Attrs: nounwind uwtable
define noundef ptr @Cnf_ManStart() local_unnamed_addr #0 {
  %calloc = tail call dereferenceable_or_null(112) ptr @calloc(i64 1, i64 112)
  %1 = getelementptr inbounds nuw i8, ptr %calloc, i64 8
  %2 = getelementptr inbounds nuw i8, ptr %calloc, i64 16
  tail call void @Cnf_ReadMsops(ptr noundef nonnull %1, ptr noundef nonnull %2) #16
  %3 = tail call ptr (...) @Aig_MmFlexStart() #16
  %4 = getelementptr inbounds nuw i8, ptr %calloc, i64 32
  store ptr %3, ptr %4, align 8, !tbaa !3
  %5 = getelementptr inbounds nuw i8, ptr %calloc, i64 40
  store i32 10, ptr %5, align 8, !tbaa !15
  %6 = tail call noalias dereferenceable_or_null(512) ptr @malloc(i64 noundef 512) #17
  %7 = getelementptr inbounds nuw i8, ptr %calloc, i64 48
  store ptr %6, ptr %7, align 8, !tbaa !16
  br label %8

8:                                                ; preds = %0, %8
  %9 = phi ptr [ %6, %0 ], [ %10, %8 ]
  %indvars.iv = phi i64 [ 1, %0 ], [ %indvars.iv.next, %8 ]
  %10 = getelementptr inbounds nuw i8, ptr %9, i64 128
  %11 = getelementptr inbounds nuw [4 x ptr], ptr %7, i64 0, i64 %indvars.iv
  store ptr %10, ptr %11, align 8, !tbaa !16
  %indvars.iv.next = add nuw nsw i64 %indvars.iv, 1
  %exitcond.not = icmp eq i64 %indvars.iv.next, 4
  br i1 %exitcond.not, label %12, label %8, !llvm.loop !18

12:                                               ; preds = %8
  %13 = tail call noalias dereferenceable_or_null(16) ptr @malloc(i64 noundef 16) #17
  %14 = getelementptr inbounds nuw i8, ptr %13, i64 4
  store i32 0, ptr %14, align 4, !tbaa !20
  store i32 262144, ptr %13, align 8, !tbaa !22
  %15 = tail call noalias dereferenceable_or_null(1048576) ptr @malloc(i64 noundef 1048576) #17
  %16 = getelementptr inbounds nuw i8, ptr %13, i64 8
  store ptr %15, ptr %16, align 8, !tbaa !23
  %17 = getelementptr inbounds nuw i8, ptr %calloc, i64 80
  store ptr %13, ptr %17, align 8, !tbaa !24
  ret ptr %calloc
}